target datalayout = "e-m:e-p270:32:32-p271:32:32-p272:64:64-i64:64-i128:128-f80:128-n8:16:32:64-S128"
target triple = "x86_64-pc-linux-gnu"

%struct.zlib_writer = type { %struct.Curl_cwriter, i32, i32, %struct.z_stream_s }
%struct.Curl_cwriter = type { ptr, ptr, ptr, i32 }
%struct.z_stream_s = type { ptr, i32, i64, ptr, i32, i64, ptr, ptr, ptr, ptr, ptr, i32, i64, i64 }

@Curl_cfree = external global ptr, align 8
@.str.13 = private unnamed_addr constant [46 x i8] c"Error while processing content unencoding: %s\00", align 1
@.str.14 = private unnamed_addr constant [90 x i8] c"Error while processing content unencoding: Unknown failure within decompression software.\00", align 1

; Function Attrs: nounwind uwtable
define internal i32 @process_zlib_error(ptr noundef %0, ptr noundef %1) #0 {
  %3 = alloca ptr, align 8
  %4 = alloca ptr, align 8
  store ptr %0, ptr %3, align 8, !tbaa !21
  store ptr %1, ptr %4, align 8, !tbaa !106
  %5 = load ptr, ptr %4, align 8, !tbaa !106
  %6 = getelementptr inbounds nuw %struct.z_stream_s, ptr %5, i32 0, i32 6
  %7 = load ptr, ptr %6, align 8, !tbaa !119
  %8 = icmp ne ptr %7, null
  br i1 %8, label %9, label %14

9:                                                ; preds = %2
  %10 = load ptr, ptr %3, align 8, !tbaa !21
  %11 = load ptr, ptr %4, align 8, !tbaa !106
  %12 = getelementptr inbounds nuw %struct.z_stream_s, ptr %11, i32 0, i32 6
  %13 = load ptr, ptr %12, align 8, !tbaa !119
  call void (ptr, ptr, ...) @Curl_failf(ptr noundef %10, ptr noundef @.str.13, ptr noundef %13)
  br label %16

14:                                               ; preds = %2
  %15 = load ptr, ptr %3, align 8, !tbaa !21
  call void (ptr, ptr, ...) @Curl_failf(ptr noundef %15, ptr noundef @.str.14)
  br label %16

16:                                               ; preds = %14, %9
  ret i32 61
}

; Function Attrs: nounwind uwtable
define internal i32 @exit_zlib(ptr noundef %0, ptr noundef %1, ptr noundef %2, i32 noundef %3) #0 {
  %5 = alloca ptr, align 8
  %6 = alloca ptr, align 8
  %7 = alloca ptr, align 8
  %8 = alloca i32, align 4
  store ptr %0, ptr %5, align 8, !tbaa !21
  store ptr %1, ptr %6, align 8, !tbaa !106
  store ptr %2, ptr %7, align 8, !tbaa !118
  store i32 %3, ptr %8, align 4, !tbaa !23
  %9 = load ptr, ptr %7, align 8, !tbaa !118
  %10 = load i32, ptr %9, align 4, !tbaa !23
  %11 = icmp eq i32 %10, 4
  br i1 %11, label %12, label %21

12:                                               ; preds = %4
  br label %13

13:                                               ; preds = %12
  %14 = load ptr, ptr @Curl_cfree, align 8, !tbaa !118
  %15 = load ptr, ptr %6, align 8, !tbaa !106
  %16 = getelementptr inbounds nuw %struct.z_stream_s, ptr %15, i32 0, i32 0
  %17 = load ptr, ptr %16, align 8, !tbaa !116
  call void %14(ptr noundef %17)
  %18 = load ptr, ptr %6, align 8, !tbaa !106
  %19 = getelementptr inbounds nuw %struct.z_stream_s, ptr %18, i32 0, i32 0
  store ptr null, ptr %19, align 8, !tbaa !116
  br label %20

20:                                               ; preds = %13
  br label %21

21:                                               ; preds = %20, %4
  %22 = load ptr, ptr %7, align 8, !tbaa !118
  %23 = load i32, ptr %22, align 4, !tbaa !23
  %24 = icmp ne i32 %23, 0
  br i1 %24, label %25, label %38

25:                                               ; preds = %21
  %26 = load ptr, ptr %6, align 8, !tbaa !106
  %27 = call i32 @cm_zlib_inflateEnd(ptr noundef %26)
  %28 = icmp ne i32 %27, 0
  br i1 %28, label %29, label %36

29:                                               ; preds = %25
  %30 = load i32, ptr %8, align 4, !tbaa !23
  %31 = icmp eq i32 %30, 0
  br i1 %31, label %32, label %36

32:                                               ; preds = %29
  %33 = load ptr, ptr %5, align 8, !tbaa !21
  %34 = load ptr, ptr %6, align 8, !tbaa !106
  %35 = call i32 @process_zlib_error(ptr noundef %33, ptr noundef %34)
  store i32 %35, ptr %8, align 4, !tbaa !23
  br label %36

36:                                               ; preds = %32, %29, %25
  %37 = load ptr, ptr %7, align 8, !tbaa !118
  store i32 0, ptr %37, align 4, !tbaa !23
  br label %38

38:                                               ; preds = %36, %21
  %39 = load i32, ptr %8, align 4, !tbaa !23
  ret i32 %39
}

; Function Attrs: nounwind uwtable
define internal void @deflate_do_close(ptr noundef %0, ptr noundef %1) #0 {
  %3 = alloca ptr, align 8
  %4 = alloca ptr, align 8
  %5 = alloca ptr, align 8
  %6 = alloca ptr, align 8
  store ptr %0, ptr %3, align 8, !tbaa !21
  store ptr %1, ptr %4, align 8, !tbaa !99
  call void @llvm.lifetime.start.p0(i64 8, ptr %5) #6
  %7 = load ptr, ptr %4, align 8, !tbaa !99
  store ptr %7, ptr %5, align 8, !tbaa !104
  call void @llvm.lifetime.start.p0(i64 8, ptr %6) #6
  %8 = load ptr, ptr %5, align 8, !tbaa !104
  %9 = getelementptr inbounds nuw %struct.zlib_writer, ptr %8, i32 0, i32 3
  store ptr %9, ptr %6, align 8, !tbaa !106
  %10 = load ptr, ptr %3, align 8, !tbaa !21
  %11 = load ptr, ptr %6, align 8, !tbaa !106
  %12 = load ptr, ptr %5, align 8, !tbaa !104
  %13 = getelementptr inbounds nuw %struct.zlib_writer, ptr %12, i32 0, i32 1
  %14 = call i32 @exit_zlib(ptr noundef %10, ptr noundef %11, ptr noundef %13, i32 noundef 0)
  call void @llvm.lifetime.end.p0(i64 8, ptr %6) #6
  call void @llvm.lifetime.end.p0(i64 8, ptr %5) #6
  ret void
}